target datalayout = "e-m:e-p270:32:32-p271:32:32-p272:64:64-i64:64-i128:128-f80:128-n8:16:32:64-S128"
target triple = "x86_64-pc-linux-gnu"

%struct.manifest_files_hash = type { i64, i32, i32, i32, ptr, ptr }
%struct.manifest_file = type { i32, ptr, i64, i32, i32, ptr }

@.str.9 = private unnamed_addr constant [25 x i8] c"hash table size exceeded\00", align 1

; Function Attrs: inlinehint nounwind uwtable
define internal i32 @manifest_files_prev(ptr noundef %0, i32 noundef %1, i32 noundef %2) #3 {
  %4 = alloca ptr, align 8
  %5 = alloca i32, align 4
  %6 = alloca i32, align 4
  store ptr %0, ptr %4, align 8
  store i32 %1, ptr %5, align 4
  store i32 %2, ptr %6, align 4
  %7 = load i32, ptr %5, align 4
  %8 = sub i32 %7, 1
  %9 = load ptr, ptr %4, align 8
  %10 = getelementptr inbounds nuw %struct.manifest_files_hash, ptr %9, i32 0, i32 2
  %11 = load i32, ptr %10, align 4
  %12 = and i32 %8, %11
  store i32 %12, ptr %5, align 4
  %13 = load i32, ptr %5, align 4
  ret i32 %13
}

; Function Attrs: inlinehint nounwind uwtable
define internal i32 @manifest_files_next(ptr noundef %0, i32 noundef %1, i32 noundef %2) #3 {
  %4 = alloca ptr, align 8
  %5 = alloca i32, align 4
  %6 = alloca i32, align 4
  store ptr %0, ptr %4, align 8
  store i32 %1, ptr %5, align 4
  store i32 %2, ptr %6, align 4
  %7 = load i32, ptr %5, align 4
  %8 = add i32 %7, 1
  %9 = load ptr, ptr %4, align 8
  %10 = getelementptr inbounds nuw %struct.manifest_files_hash, ptr %9, i32 0, i32 2
  %11 = load i32, ptr %10, align 4
  %12 = and i32 %8, %11
  store i32 %12, ptr %5, align 4
  %13 = load i32, ptr %5, align 4
  ret i32 %13
}

; Function Attrs: inlinehint nounwind uwtable
define internal i32 @manifest_files_distance(ptr noundef %0, i32 noundef %1, i32 noundef %2) #3 {
  %4 = alloca i32, align 4
  %5 = alloca ptr, align 8
  %6 = alloca i32, align 4
  %7 = alloca i32, align 4
  store ptr %0, ptr %5, align 8
  store i32 %1, ptr %6, align 4
  store i32 %2, ptr %7, align 4
  %8 = load i32, ptr %6, align 4
  %9 = load i32, ptr %7, align 4
  %10 = icmp ule i32 %8, %9
  br i1 %10, label %11, label %15

11:                                               ; preds = %3
  %12 = load i32, ptr %7, align 4
  %13 = load i32, ptr %6, align 4
  %14 = sub i32 %12, %13
  store i32 %14, ptr %4, align 4
  br label %26

15:                                               ; preds = %3
  %16 = load ptr, ptr %5, align 8
  %17 = getelementptr inbounds nuw %struct.manifest_files_hash, ptr %16, i32 0, i32 0
  %18 = load i64, ptr %17, align 8
  %19 = load i32, ptr %7, align 4
  %20 = zext i32 %19 to i64
  %21 = add i64 %18, %20
  %22 = load i32, ptr %6, align 4
  %23 = zext i32 %22 to i64
  %24 = sub i64 %21, %23
  %25 = trunc i64 %24 to i32
  store i32 %25, ptr %4, align 4
  br label %26

26:                                               ; preds = %15, %11
  %27 = load i32, ptr %4, align 4
  ret i32 %27
}

; Function Attrs: inlinehint nounwind uwtable
define internal i32 @manifest_files_entry_hash(ptr noundef %0, ptr noundef %1) #3 {
  %3 = alloca ptr, align 8
  %4 = alloca ptr, align 8
  store ptr %0, ptr %3, align 8
  store ptr %1, ptr %4, align 8
  %5 = load ptr, ptr %4, align 8
  %6 = getelementptr inbounds nuw %struct.manifest_file, ptr %5, i32 0, i32 1
  %7 = load ptr, ptr %6, align 8
  %8 = call i32 @hash_string(ptr noundef %7)
  ret i32 %8
}

; Function Attrs: inlinehint nounwind uwtable
define internal i32 @manifest_files_initial_bucket(ptr noundef %0, i32 noundef %1) #3 {
  %3 = alloca ptr, align 8
  %4 = alloca i32, align 4
  store ptr %0, ptr %3, align 8
  store i32 %1, ptr %4, align 4
  %5 = load i32, ptr %4, align 4
  %6 = load ptr, ptr %3, align 8
  %7 = getelementptr inbounds nuw %struct.manifest_files_hash, ptr %6, i32 0, i32 2
  %8 = load i32, ptr %7, align 4
  %9 = and i32 %5, %8
  ret i32 %9
}

; Function Attrs: inlinehint nounwind uwtable
define internal ptr @manifest_files_insert_hash_internal(ptr noundef %0, ptr noundef %1, i32 noundef %2, ptr noundef %3) #3 {
  %5 = alloca ptr, align 8
  %6 = alloca ptr, align 8
  %7 = alloca ptr, align 8
  %8 = alloca i32, align 4
  %9 = alloca ptr, align 8
  %10 = alloca i32, align 4
  %11 = alloca i32, align 4
  %12 = alloca ptr, align 8
  %13 = alloca i32, align 4
  %14 = alloca i32, align 4
  %15 = alloca i32, align 4
  %16 = alloca i32, align 4
  %17 = alloca ptr, align 8
  %18 = alloca i32, align 4
  %19 = alloca ptr, align 8
  %20 = alloca i32, align 4
  %21 = alloca i32, align 4
  %22 = alloca i32, align 4
  %23 = alloca ptr, align 8
  %24 = alloca ptr, align 8
  store ptr %0, ptr %6, align 8
  store ptr %1, ptr %7, align 8
  store i32 %2, ptr %8, align 4
  store ptr %3, ptr %9, align 8
  call void @llvm.lifetime.start.p0(i64 4, ptr %10) #14
  call void @llvm.lifetime.start.p0(i64 4, ptr %11) #14
  call void @llvm.lifetime.start.p0(i64 8, ptr %12) #14
  call void @llvm.lifetime.start.p0(i64 4, ptr %13) #14
  br label %25

25:                                               ; preds = %222, %4
  store i32 0, ptr %13, align 4
  %26 = load ptr, ptr %6, align 8
  %27 = getelementptr inbounds nuw %struct.manifest_files_hash, ptr %26, i32 0, i32 1
  %28 = load i32, ptr %27, align 8
  %29 = load ptr, ptr %6, align 8
  %30 = getelementptr inbounds nuw %struct.manifest_files_hash, ptr %29, i32 0, i32 3
  %31 = load i32, ptr %30, align 8
  %32 = icmp uge i32 %28, %31
  %33 = zext i1 %32 to i32
  %34 = icmp ne i32 %33, 0
  %35 = zext i1 %34 to i32
  %36 = sext i32 %35 to i64
  %37 = call i64 @llvm.expect.i64(i64 %36, i64 0)
  %38 = icmp ne i64 %37, 0
  br i1 %38, label %39, label %60

39:                                               ; preds = %25
  %40 = load ptr, ptr %6, align 8
  %41 = getelementptr inbounds nuw %struct.manifest_files_hash, ptr %40, i32 0, i32 0
  %42 = load i64, ptr %41, align 8
  %43 = icmp eq i64 %42, 4294967296
  %44 = zext i1 %43 to i32
  %45 = icmp ne i32 %44, 0
  %46 = zext i1 %45 to i32
  %47 = sext i32 %46 to i64
  %48 = call i64 @llvm.expect.i64(i64 %47, i64 0)
  %49 = icmp ne i64 %48, 0
  br i1 %49, label %50, label %54

50:                                               ; preds = %39
  br label %51

51:                                               ; preds = %50
  call void (i32, i32, ptr, ...) @pg_log_generic(i32 noundef 4, i32 noundef 0, ptr noundef @.str.9)
  call void @exit(i32 noundef 1) #15
  unreachable

52:                                               ; No predecessors!
  br label %53

53:                                               ; preds = %52
  br label %54

54:                                               ; preds = %53, %39
  %55 = load ptr, ptr %6, align 8
  %56 = load ptr, ptr %6, align 8
  %57 = getelementptr inbounds nuw %struct.manifest_files_hash, ptr %56, i32 0, i32 0
  %58 = load i64, ptr %57, align 8
  %59 = mul i64 %58, 2
  call void @manifest_files_grow(ptr noundef %55, i64 noundef %59)
  br label %60

60:                                               ; preds = %54, %25
  %61 = load ptr, ptr %6, align 8
  %62 = getelementptr inbounds nuw %struct.manifest_files_hash, ptr %61, i32 0, i32 4
  %63 = load ptr, ptr %62, align 8
  store ptr %63, ptr %12, align 8
  %64 = load ptr, ptr %6, align 8
  %65 = load i32, ptr %8, align 4
  %66 = call i32 @manifest_files_initial_bucket(ptr noundef %64, i32 noundef %65)
  store i32 %66, ptr %10, align 4
  %67 = load i32, ptr %10, align 4
  store i32 %67, ptr %11, align 4
  br label %68

68:                                               ; preds = %224, %60
  br label %69

69:                                               ; preds = %68
  call void @llvm.lifetime.start.p0(i64 4, ptr %14) #14
  call void @llvm.lifetime.start.p0(i64 4, ptr %15) #14
  call void @llvm.lifetime.start.p0(i64 4, ptr %16) #14
  call void @llvm.lifetime.start.p0(i64 8, ptr %17) #14
  %70 = load ptr, ptr %12, align 8
  %71 = load i32, ptr %11, align 4
  %72 = zext i32 %71 to i64
  %73 = getelementptr inbounds nuw %struct.manifest_file, ptr %70, i64 %72
  store ptr %73, ptr %17, align 8
  %74 = load ptr, ptr %17, align 8
  %75 = getelementptr inbounds nuw %struct.manifest_file, ptr %74, i32 0, i32 0
  %76 = load i32, ptr %75, align 8
  %77 = icmp eq i32 %76, 0
  br i1 %77, label %78, label %90

78:                                               ; preds = %69
  %79 = load ptr, ptr %6, align 8
  %80 = getelementptr inbounds nuw %struct.manifest_files_hash, ptr %79, i32 0, i32 1
  %81 = load i32, ptr %80, align 8
  %82 = add i32 %81, 1
  store i32 %82, ptr %80, align 8
  %83 = load ptr, ptr %7, align 8
  %84 = load ptr, ptr %17, align 8
  %85 = getelementptr inbounds nuw %struct.manifest_file, ptr %84, i32 0, i32 1
  store ptr %83, ptr %85, align 8
  %86 = load ptr, ptr %17, align 8
  %87 = getelementptr inbounds nuw %struct.manifest_file, ptr %86, i32 0, i32 0
  store i32 1, ptr %87, align 8
  %88 = load ptr, ptr %9, align 8
  store i8 0, ptr %88, align 1
  %89 = load ptr, ptr %17, align 8
  store ptr %89, ptr %5, align 8
  store i32 1, ptr %18, align 4
  br label %222

90:                                               ; preds = %69
  %91 = load ptr, ptr %17, align 8
  %92 = getelementptr inbounds nuw %struct.manifest_file, ptr %91, i32 0, i32 1
  %93 = load ptr, ptr %92, align 8
  %94 = load ptr, ptr %7, align 8
  %95 = call i32 @strcmp(ptr noundef %93, ptr noundef %94) #16
  %96 = icmp eq i32 %95, 0
  br i1 %96, label %97, label %100

97:                                               ; preds = %90
  %98 = load ptr, ptr %9, align 8
  store i8 1, ptr %98, align 1
  %99 = load ptr, ptr %17, align 8
  store ptr %99, ptr %5, align 8
  store i32 1, ptr %18, align 4
  br label %222

100:                                              ; preds = %90
  %101 = load ptr, ptr %6, align 8
  %102 = load ptr, ptr %17, align 8
  %103 = call i32 @manifest_files_entry_hash(ptr noundef %101, ptr noundef %102)
  store i32 %103, ptr %15, align 4
  %104 = load ptr, ptr %6, align 8
  %105 = load i32, ptr %15, align 4
  %106 = call i32 @manifest_files_initial_bucket(ptr noundef %104, i32 noundef %105)
  store i32 %106, ptr %16, align 4
  %107 = load ptr, ptr %6, align 8
  %108 = load i32, ptr %16, align 4
  %109 = load i32, ptr %11, align 4
  %110 = call i32 @manifest_files_distance(ptr noundef %107, i32 noundef %108, i32 noundef %109)
  store i32 %110, ptr %14, align 4
  %111 = load i32, ptr %13, align 4
  %112 = load i32, ptr %14, align 4
  %113 = icmp ugt i32 %111, %112
  br i1 %113, label %114, label %192

114:                                              ; preds = %100
  call void @llvm.lifetime.start.p0(i64 8, ptr %19) #14
  %115 = load ptr, ptr %17, align 8
  store ptr %115, ptr %19, align 8
  call void @llvm.lifetime.start.p0(i64 4, ptr %20) #14
  %116 = load i32, ptr %11, align 4
  store i32 %116, ptr %20, align 4
  call void @llvm.lifetime.start.p0(i64 4, ptr %21) #14
  call void @llvm.lifetime.start.p0(i64 4, ptr %22) #14
  store i32 0, ptr %22, align 4
  br label %117

117:                                              ; preds = %160, %114
  br label %118

118:                                              ; preds = %117
  call void @llvm.lifetime.start.p0(i64 8, ptr %23) #14
  %119 = load ptr, ptr %6, align 8
  %120 = load i32, ptr %20, align 4
  %121 = load i32, ptr %10, align 4
  %122 = call i32 @manifest_files_next(ptr noundef %119, i32 noundef %120, i32 noundef %121)
  store i32 %122, ptr %20, align 4
  %123 = load ptr, ptr %12, align 8
  %124 = load i32, ptr %20, align 4
  %125 = zext i32 %124 to i64
  %126 = getelementptr inbounds nuw %struct.manifest_file, ptr %123, i64 %125
  store ptr %126, ptr %23, align 8
  %127 = load ptr, ptr %23, align 8
  %128 = getelementptr inbounds nuw %struct.manifest_file, ptr %127, i32 0, i32 0
  %129 = load i32, ptr %128, align 8
  %130 = icmp eq i32 %129, 0
  br i1 %130, label %131, label %133

131:                                              ; preds = %118
  %132 = load ptr, ptr %23, align 8
  store ptr %132, ptr %19, align 8
  store i32 8, ptr %18, align 4
  br label %158

133:                                              ; preds = %118
  %134 = load i32, ptr %22, align 4
  %135 = add i32 %134, 1
  store i32 %135, ptr %22, align 4
  %136 = icmp sgt i32 %135, 150
  %137 = zext i1 %136 to i32
  %138 = icmp ne i32 %137, 0
  %139 = zext i1 %138 to i32
  %140 = sext i32 %139 to i64
  %141 = call i64 @llvm.expect.i64(i64 %140, i64 0)
  %142 = icmp ne i64 %141, 0
  br i1 %142, label %143, label %157

143:                                              ; preds = %133
  %144 = load ptr, ptr %6, align 8
  %145 = getelementptr inbounds nuw %struct.manifest_files_hash, ptr %144, i32 0, i32 1
  %146 = load i32, ptr %145, align 8
  %147 = uitofp i32 %146 to double
  %148 = load ptr, ptr %6, align 8
  %149 = getelementptr inbounds nuw %struct.manifest_files_hash, ptr %148, i32 0, i32 0
  %150 = load i64, ptr %149, align 8
  %151 = uitofp i64 %150 to double
  %152 = fdiv double %147, %151
  %153 = fcmp oge double %152, 1.000000e-01
  br i1 %153, label %154, label %157

154:                                              ; preds = %143
  %155 = load ptr, ptr %6, align 8
  %156 = getelementptr inbounds nuw %struct.manifest_files_hash, ptr %155, i32 0, i32 3
  store i32 0, ptr %156, align 8
  store i32 2, ptr %18, align 4
  br label %158

157:                                              ; preds = %143, %133
  store i32 0, ptr %18, align 4
  br label %158

158:                                              ; preds = %157, %154, %131
  call void @llvm.lifetime.end.p0(i64 8, ptr %23) #14
  %159 = load i32, ptr %18, align 4
  switch i32 %159, label %191 [
    i32 0, label %160
    i32 8, label %161
  ]

160:                                              ; preds = %158
  br label %117

161:                                              ; preds = %158
  %162 = load i32, ptr %20, align 4
  store i32 %162, ptr %21, align 4
  br label %163

163:                                              ; preds = %167, %161
  %164 = load i32, ptr %21, align 4
  %165 = load i32, ptr %11, align 4
  %166 = icmp ne i32 %164, %165
  br i1 %166, label %167, label %179

167:                                              ; preds = %163
  call void @llvm.lifetime.start.p0(i64 8, ptr %24) #14
  %168 = load ptr, ptr %6, align 8
  %169 = load i32, ptr %21, align 4
  %170 = load i32, ptr %10, align 4
  %171 = call i32 @manifest_files_prev(ptr noundef %168, i32 noundef %169, i32 noundef %170)
  store i32 %171, ptr %21, align 4
  %172 = load ptr, ptr %12, align 8
  %173 = load i32, ptr %21, align 4
  %174 = zext i32 %173 to i64
  %175 = getelementptr inbounds nuw %struct.manifest_file, ptr %172, i64 %174
  store ptr %175, ptr %24, align 8
  %176 = load ptr, ptr %19, align 8
  %177 = load ptr, ptr %24, align 8
  call void @llvm.memcpy.p0.p0.i64(ptr align 8 %176, ptr align 8 %177, i64 40, i1 false)
  %178 = load ptr, ptr %24, align 8
  store ptr %178, ptr %19, align 8
  call void @llvm.lifetime.end.p0(i64 8, ptr %24) #14
  br label %163, !llvm.loop !7

179:                                              ; preds = %163
  %180 = load ptr, ptr %6, align 8
  %181 = getelementptr inbounds nuw %struct.manifest_files_hash, ptr %180, i32 0, i32 1
  %182 = load i32, ptr %181, align 8
  %183 = add i32 %182, 1
  store i32 %183, ptr %181, align 8
  %184 = load ptr, ptr %7, align 8
  %185 = load ptr, ptr %17, align 8
  %186 = getelementptr inbounds nuw %struct.manifest_file, ptr %185, i32 0, i32 1
  store ptr %184, ptr %186, align 8
  %187 = load ptr, ptr %17, align 8
  %188 = getelementptr inbounds nuw %struct.manifest_file, ptr %187, i32 0, i32 0
  store i32 1, ptr %188, align 8
  %189 = load ptr, ptr %9, align 8
  store i8 0, ptr %189, align 1
  %190 = load ptr, ptr %17, align 8
  store ptr %190, ptr %5, align 8
  store i32 1, ptr %18, align 4
  br label %191

191:                                              ; preds = %179, %158
  call void @llvm.lifetime.end.p0(i64 4, ptr %22) #14
  call void @llvm.lifetime.end.p0(i64 4, ptr %21) #14
  call void @llvm.lifetime.end.p0(i64 4, ptr %20) #14
  call void @llvm.lifetime.end.p0(i64 8, ptr %19) #14
  br label %222

192:                                              ; preds = %100
  %193 = load ptr, ptr %6, align 8
  %194 = load i32, ptr %11, align 4
  %195 = load i32, ptr %10, align 4
  %196 = call i32 @manifest_files_next(ptr noundef %193, i32 noundef %194, i32 noundef %195)
  store i32 %196, ptr %11, align 4
  %197 = load i32, ptr %13, align 4
  %198 = add i32 %197, 1
  store i32 %198, ptr %13, align 4
  %199 = load i32, ptr %13, align 4
  %200 = icmp ugt i32 %199, 25
  %201 = zext i1 %200 to i32
  %202 = icmp ne i32 %201, 0
  %203 = zext i1 %202 to i32
  %204 = sext i32 %203 to i64
  %205 = call i64 @llvm.expect.i64(i64 %204, i64 0)
  %206 = icmp ne i64 %205, 0
  br i1 %206, label %207, label %221

207:                                              ; preds = %192
  %208 = load ptr, ptr %6, align 8
  %209 = getelementptr inbounds nuw %struct.manifest_files_hash, ptr %208, i32 0, i32 1
  %210 = load i32, ptr %209, align 8
  %211 = uitofp i32 %210 to double
  %212 = load ptr, ptr %6, align 8
  %213 = getelementptr inbounds nuw %struct.manifest_files_hash, ptr %212, i32 0, i32 0
  %214 = load i64, ptr %213, align 8
  %215 = uitofp i64 %214 to double
  %216 = fdiv double %211, %215
  %217 = fcmp oge double %216, 1.000000e-01
  br i1 %217, label %218, label %221

218:                                              ; preds = %207
  %219 = load ptr, ptr %6, align 8
  %220 = getelementptr inbounds nuw %struct.manifest_files_hash, ptr %219, i32 0, i32 3
  store i32 0, ptr %220, align 8
  store i32 2, ptr %18, align 4
  br label %222

221:                                              ; preds = %207, %192
  store i32 0, ptr %18, align 4
  br label %222

222:                                              ; preds = %221, %218, %191, %97, %78
  call void @llvm.lifetime.end.p0(i64 8, ptr %17) #14
  call void @llvm.lifetime.end.p0(i64 4, ptr %16) #14
  call void @llvm.lifetime.end.p0(i64 4, ptr %15) #14
  call void @llvm.lifetime.end.p0(i64 4, ptr %14) #14
  %223 = load i32, ptr %18, align 4
  switch i32 %223, label %225 [
    i32 0, label %224
    i32 2, label %25
  ]

224:                                              ; preds = %222
  br label %68

225:                                              ; preds = %222
  call void @llvm.lifetime.end.p0(i64 4, ptr %13) #14
  call void @llvm.lifetime.end.p0(i64 8, ptr %12) #14
  call void @llvm.lifetime.end.p0(i64 4, ptr %11) #14
  call void @llvm.lifetime.end.p0(i64 4, ptr %10) #14
  %226 = load ptr, ptr %5, align 8
  ret ptr %226
}