; Function Attrs: inlinehint nounwind uwtable
define internal fastcc noundef ptr @manifest_files_insert_hash_internal(ptr noundef captures(none) %0, ptr noundef %1, i32 noundef %2, ptr noundef writeonly captures(none) %3) unnamed_addr #7 {
  %5 = getelementptr inbounds nuw i8, ptr %0, i64 8
  %6 = getelementptr inbounds nuw i8, ptr %0, i64 16
  %7 = getelementptr inbounds nuw i8, ptr %0, i64 24
  %8 = getelementptr i8, ptr %0, i64 12
  br label %.loopexit

.loopexit.loopexit:                               ; preds = %69, %47
  store i32 0, ptr %6, align 8
  br label %.loopexit

.loopexit:                                        ; preds = %.loopexit.loopexit, %4
  %9 = load i32, ptr %5, align 8
  %10 = load i32, ptr %6, align 8
  %.not = icmp ult i32 %9, %10
  br i1 %.not, label %17, label %11, !prof !10

11:                                               ; preds = %.loopexit
  %12 = load i64, ptr %0, align 8
  %13 = icmp eq i64 %12, 4294967296
  br i1 %13, label %14, label %15, !prof !4

14:                                               ; preds = %11
  tail call void (i32, i32, ptr, ...) @pg_log_generic(i32 noundef 4, i32 noundef 0, ptr noundef nonnull @.str.9) #22
  tail call void @exit(i32 noundef 1) #23
  unreachable

15:                                               ; preds = %11
  %16 = shl i64 %12, 1
  tail call void @manifest_files_grow(ptr noundef nonnull %0, i64 noundef %16)
  br label %17

17:                                               ; preds = %15, %.loopexit
  %18 = load ptr, ptr %7, align 8
  %.val90 = load i32, ptr %8, align 4
  %.071181 = and i32 %.val90, %2
  %19 = zext i32 %.071181 to i64
  %20 = getelementptr inbounds nuw %struct.manifest_file, ptr %18, i64 %19
  %21 = load i32, ptr %20, align 8
  %22 = icmp eq i32 %21, 0
  br i1 %22, label %._crit_edge186, label %.lr.ph185

._crit_edge186:                                   ; preds = %17, %76
  %.lcssa = phi ptr [ %78, %76 ], [ %20, %17 ]
  %23 = load i32, ptr %5, align 8
  %24 = add i32 %23, 1
  store i32 %24, ptr %5, align 8
  %25 = getelementptr inbounds nuw i8, ptr %.lcssa, i64 8
  store ptr %1, ptr %25, align 8
  br label %.thread97.sink.split

.lr.ph185:                                        ; preds = %17, %76
  %26 = phi ptr [ %78, %76 ], [ %20, %17 ]
  %.071183 = phi i32 [ %.071, %76 ], [ %.071181, %17 ]
  %.083182 = phi i32 [ %67, %76 ], [ 0, %17 ]
  %27 = getelementptr inbounds nuw i8, ptr %26, i64 8
  %28 = load ptr, ptr %27, align 8
  %29 = tail call i32 @strcmp(ptr noundef nonnull dereferenceable(1) %28, ptr noundef nonnull dereferenceable(1) %1) #24
  %30 = icmp eq i32 %29, 0
  br i1 %30, label %.thread97, label %31

31:                                               ; preds = %.lr.ph185
  %32 = tail call fastcc i32 @hash_string(ptr noundef nonnull readonly %28)
  %33 = and i32 %.val90, %32
  %.not.i = icmp ugt i32 %33, %.071183
  br i1 %.not.i, label %34, label %manifest_files_distance.exit

34:                                               ; preds = %31
  %35 = load i64, ptr %0, align 8
  %36 = trunc i64 %35 to i32
  %37 = add i32 %.071183, %36
  br label %manifest_files_distance.exit

manifest_files_distance.exit:                     ; preds = %31, %34
  %.pn.i = phi i32 [ %37, %34 ], [ %.071183, %31 ]
  %.0.i = sub i32 %.pn.i, %33
  %38 = icmp ugt i32 %.083182, %.0.i
  %39 = add i32 %.071183, 1
  br i1 %38, label %.preheader107.preheader, label %66

.preheader107.preheader:                          ; preds = %manifest_files_distance.exit
  %40 = and i32 %39, %.val90
  %41 = zext i32 %40 to i64
  %42 = getelementptr inbounds nuw %struct.manifest_file, ptr %18, i64 %41
  %43 = load i32, ptr %42, align 8
  %.not106189 = icmp eq i32 %43, 0
  br i1 %.not106189, label %.preheader, label %.lr.ph191

.lr.ph191:                                        ; preds = %.preheader107.preheader, %.preheader107
  %44 = phi i32 [ %55, %.preheader107 ], [ %40, %.preheader107.preheader ]
  %.073190 = phi i32 [ %45, %.preheader107 ], [ 0, %.preheader107.preheader ]
  %45 = add i32 %.073190, 1
  %46 = icmp sgt i32 %45, 150
  br i1 %46, label %47, label %.preheader107, !prof !4

47:                                               ; preds = %.lr.ph191
  %48 = load i32, ptr %5, align 8
  %49 = uitofp i32 %48 to double
  %50 = load i64, ptr %0, align 8
  %51 = uitofp i64 %50 to double
  %52 = fdiv double %49, %51
  %53 = fcmp ult double %52, 1.000000e-01
  br i1 %53, label %.preheader107, label %.loopexit.loopexit

.preheader107:                                    ; preds = %.lr.ph191, %47
  %54 = add i32 %44, 1
  %55 = and i32 %54, %.val90
  %56 = zext i32 %55 to i64
  %57 = getelementptr inbounds nuw %struct.manifest_file, ptr %18, i64 %56
  %58 = load i32, ptr %57, align 8
  %.not106 = icmp eq i32 %58, 0
  br i1 %.not106, label %.preheader, label %.lr.ph191

.preheader:                                       ; preds = %.preheader107.preheader, %.preheader107
  %.lcssa176 = phi i32 [ %55, %.preheader107 ], [ %40, %.preheader107.preheader ]
  %.lcssa174 = phi ptr [ %57, %.preheader107 ], [ %42, %.preheader107.preheader ]
  %59 = getelementptr inbounds nuw i8, ptr %26, i64 8
  %.not88129 = icmp eq i32 %.lcssa176, %.071183
  br i1 %.not88129, label %._crit_edge, label %.lr.ph

.lr.ph:                                           ; preds = %.preheader, %.lr.ph
  %.075131 = phi i32 [ %61, %.lr.ph ], [ %.lcssa176, %.preheader ]
  %.279130 = phi ptr [ %63, %.lr.ph ], [ %.lcssa174, %.preheader ]
  %.val93 = load i32, ptr %8, align 4
  %60 = add i32 %.075131, -1
  %61 = and i32 %.val93, %60
  %62 = zext i32 %61 to i64
  %63 = getelementptr inbounds nuw %struct.manifest_file, ptr %18, i64 %62
  tail call void @llvm.memcpy.p0.p0.i64(ptr noundef nonnull align 8 dereferenceable(40) %.279130, ptr noundef nonnull align 8 dereferenceable(40) %63, i64 40, i1 false)
  %.not88 = icmp eq i32 %61, %.071183
  br i1 %.not88, label %._crit_edge, label %.lr.ph, !llvm.loop !11

._crit_edge:                                      ; preds = %.lr.ph, %.preheader
  %64 = load i32, ptr %5, align 8
  %65 = add i32 %64, 1
  store i32 %65, ptr %5, align 8
  store ptr %1, ptr %59, align 8
  br label %.thread97.sink.split

66:                                               ; preds = %manifest_files_distance.exit
  %67 = add i32 %.083182, 1
  %68 = icmp ugt i32 %67, 25
  br i1 %68, label %69, label %76, !prof !4

69:                                               ; preds = %66
  %70 = load i32, ptr %5, align 8
  %71 = uitofp i32 %70 to double
  %72 = load i64, ptr %0, align 8
  %73 = uitofp i64 %72 to double
  %74 = fdiv double %71, %73
  %75 = fcmp ult double %74, 1.000000e-01
  br i1 %75, label %76, label %.loopexit.loopexit

76:                                               ; preds = %66, %69
  %.071 = and i32 %.val90, %39
  %77 = zext i32 %.071 to i64
  %78 = getelementptr inbounds nuw %struct.manifest_file, ptr %18, i64 %77
  %79 = load i32, ptr %78, align 8
  %80 = icmp eq i32 %79, 0
  br i1 %80, label %._crit_edge186, label %.lr.ph185

.thread97.sink.split:                             ; preds = %._crit_edge186, %._crit_edge
  %81 = phi ptr [ %.lcssa, %._crit_edge186 ], [ %26, %._crit_edge ]
  store i32 1, ptr %81, align 8
  br label %.thread97

.thread97:                                        ; preds = %.lr.ph185, %.thread97.sink.split
  %82 = phi ptr [ %81, %.thread97.sink.split ], [ %26, %.lr.ph185 ]
  %.sink = phi i8 [ 0, %.thread97.sink.split ], [ 1, %.lr.ph185 ]
  store i8 %.sink, ptr %3, align 1
  ret ptr %82
}